; Function Attrs: mustprogress nounwind willreturn uwtable
define dso_local void @php_ini_builder_quoted(ptr noundef captures(none) %0, ptr noundef readonly captures(none) %1, i64 noundef %2, ptr noundef readonly captures(none) %3, i64 noundef %4) local_unnamed_addr #0 {
  %6 = load ptr, ptr %0, align 8, !tbaa !4
  %7 = getelementptr inbounds nuw i8, ptr %0, i64 8
  %8 = load i64, ptr %7, align 8, !tbaa !11
  %9 = add i64 %2, 5
  %10 = add i64 %9, %4
  %11 = add i64 %10, %8
  %12 = tail call ptr @realloc(ptr noundef %6, i64 noundef %11) #5
  store ptr %12, ptr %0, align 8, !tbaa !4
  %13 = load i64, ptr %7, align 8, !tbaa !11
  %14 = getelementptr inbounds nuw i8, ptr %12, i64 %13
  tail call void @llvm.memcpy.p0.p0.i64(ptr align 1 %14, ptr align 1 %1, i64 %2, i1 false)
  %15 = add i64 %13, %2
  %16 = getelementptr inbounds nuw i8, ptr %12, i64 %15
  store i8 61, ptr %16, align 1, !tbaa !12
  %17 = add i64 %15, 2
  store i64 %17, ptr %7, align 8, !tbaa !11
  %18 = getelementptr i8, ptr %12, i64 %15
  %19 = getelementptr i8, ptr %18, i64 1
  store i8 34, ptr %19, align 1, !tbaa !12
  %20 = getelementptr inbounds nuw i8, ptr %12, i64 %17
  tail call void @llvm.memcpy.p0.p0.i64(ptr align 1 %20, ptr align 1 %3, i64 %4, i1 false)
  %21 = add i64 %17, %4
  %22 = getelementptr inbounds nuw i8, ptr %12, i64 %21
  store i8 34, ptr %22, align 1, !tbaa !12
  %23 = add i64 %21, 2
  store i64 %23, ptr %7, align 8, !tbaa !11
  %24 = getelementptr i8, ptr %12, i64 %21
  %25 = getelementptr i8, ptr %24, i64 1
  store i8 10, ptr %25, align 1, !tbaa !12
  ret void
}